target datalayout = "e-m:e-p270:32:32-p271:32:32-p272:64:64-i64:64-i128:128-f80:128-n8:16:32:64-S128"
target triple = "x86_64-pc-linux-gnu"

%struct.ControlFileData = type { i64, i32, i32, i32, i64, i64, %struct.CheckPoint, i64, i64, i32, i64, i64, i8, i32, i8, i32, i32, i32, i32, i32, i8, i32, double, i32, i32, i32, i32, i32, i32, i32, i32, i8, i32, [32 x i8], i32 }
%struct.CheckPoint = type { i64, i32, i32, i8, i32, %struct.FullTransactionId, i32, i32, i32, i32, i32, i32, i32, i64, i32, i32, i32 }
%struct.FullTransactionId = type { i64 }

@WalSegSz = dso_local global i32 0, align 4
@.str.86 = private unnamed_addr constant [45 x i8] c"unexpected control file size %d, expected %d\00", align 1
@.str.87 = private unnamed_addr constant [51 x i8] c"invalid WAL segment size in control file (%d byte)\00", align 1
@.str.88 = private unnamed_addr constant [52 x i8] c"invalid WAL segment size in control file (%d bytes)\00", align 1
@.str.89 = private unnamed_addr constant [67 x i8] c"The WAL segment size must be a power of two between 1 MB and 1 GB.\00", align 1
@pg_comp_crc32c = external global ptr, align 8
@.str.90 = private unnamed_addr constant [28 x i8] c"unexpected control file CRC\00", align 1

; Function Attrs: nounwind uwtable
define internal void @checkControlFile(ptr noundef %0) #0 {
  %2 = alloca ptr, align 8
  %3 = alloca i32, align 4
  store ptr %0, ptr %2, align 8
  call void @llvm.lifetime.start.p0(i64 4, ptr %3) #9
  store i32 -1, ptr %3, align 4
  %4 = load ptr, ptr @pg_comp_crc32c, align 8
  %5 = load i32, ptr %3, align 4
  %6 = load ptr, ptr %2, align 8
  %7 = call i32 %4(i32 noundef %5, ptr noundef %6, i64 noundef 288)
  store i32 %7, ptr %3, align 4
  %8 = load i32, ptr %3, align 4
  %9 = xor i32 %8, -1
  store i32 %9, ptr %3, align 4
  %10 = load i32, ptr %3, align 4
  %11 = load ptr, ptr %2, align 8
  %12 = getelementptr inbounds nuw %struct.ControlFileData, ptr %11, i32 0, i32 34
  %13 = load i32, ptr %12, align 8
  %14 = icmp eq i32 %10, %13
  br i1 %14, label %19, label %15

15:                                               ; preds = %1
  br label %16

16:                                               ; preds = %15
  call void (i32, i32, ptr, ...) @pg_log_generic(i32 noundef 4, i32 noundef 0, ptr noundef @.str.90)
  call void @exit(i32 noundef 1) #11
  unreachable

17:                                               ; No predecessors!
  br label %18

18:                                               ; preds = %17
  br label %19

19:                                               ; preds = %18, %1
  call void @llvm.lifetime.end.p0(i64 4, ptr %3) #9
  ret void
}

; Function Attrs: nounwind uwtable
define internal void @digestControlFile(ptr noundef %0, ptr noundef %1, i64 noundef %2) #0 {
  %4 = alloca ptr, align 8
  %5 = alloca ptr, align 8
  %6 = alloca i64, align 8
  store ptr %0, ptr %4, align 8
  store ptr %1, ptr %5, align 8
  store i64 %2, ptr %6, align 8
  %7 = load i64, ptr %6, align 8
  %8 = icmp ne i64 %7, 8192
  br i1 %8, label %9, label %14

9:                                                ; preds = %3
  br label %10

10:                                               ; preds = %9
  %11 = load i64, ptr %6, align 8
  %12 = trunc i64 %11 to i32
  call void (i32, i32, ptr, ...) @pg_log_generic(i32 noundef 4, i32 noundef 0, ptr noundef @.str.86, i32 noundef %12, i32 noundef 8192)
  call void @exit(i32 noundef 1) #11
  unreachable

13:                                               ; No predecessors!
  br label %14

14:                                               ; preds = %13, %3
  %15 = load ptr, ptr %4, align 8
  %16 = load ptr, ptr %5, align 8
  call void @llvm.memcpy.p0.p0.i64(ptr align 8 %15, ptr align 1 %16, i64 296, i1 false)
  %17 = load ptr, ptr %4, align 8
  %18 = getelementptr inbounds nuw %struct.ControlFileData, ptr %17, i32 0, i32 26
  %19 = load i32, ptr %18, align 4
  store i32 %19, ptr @WalSegSz, align 4
  %20 = load i32, ptr @WalSegSz, align 4
  %21 = icmp sgt i32 %20, 0
  br i1 %21, label %22, label %34

22:                                               ; preds = %14
  %23 = load i32, ptr @WalSegSz, align 4
  %24 = load i32, ptr @WalSegSz, align 4
  %25 = sub i32 %24, 1
  %26 = and i32 %23, %25
  %27 = icmp eq i32 %26, 0
  br i1 %27, label %28, label %34

28:                                               ; preds = %22
  %29 = load i32, ptr @WalSegSz, align 4
  %30 = icmp sge i32 %29, 1048576
  br i1 %30, label %31, label %34

31:                                               ; preds = %28
  %32 = load i32, ptr @WalSegSz, align 4
  %33 = icmp sle i32 %32, 1073741824
  br i1 %33, label %39, label %34

34:                                               ; preds = %31, %28, %22, %14
  %35 = load i32, ptr @WalSegSz, align 4
  %36 = icmp eq i32 %35, 1
  %37 = select i1 %36, ptr @.str.87, ptr @.str.88
  %38 = load i32, ptr @WalSegSz, align 4
  call void (i32, i32, ptr, ...) @pg_log_generic(i32 noundef 4, i32 noundef 0, ptr noundef %37, i32 noundef %38)
  call void (i32, i32, ptr, ...) @pg_log_generic(i32 noundef 4, i32 noundef 1, ptr noundef @.str.89)
  call void @exit(i32 noundef 1) #11
  unreachable

39:                                               ; preds = %31
  %40 = load ptr, ptr %4, align 8
  call void @checkControlFile(ptr noundef %40)
  ret void
}