; Function Attrs: nounwind uwtable
define internal fastcc void @digestControlFile(ptr noundef %0, ptr noundef readonly captures(none) %1, i64 noundef %2) unnamed_addr #0 {
  %.not = icmp eq i64 %2, 8192
  br i1 %.not, label %6, label %4

4:                                                ; preds = %3
  %5 = trunc i64 %2 to i32
  tail call void (i32, i32, ptr, ...) @pg_log_generic(i32 noundef 4, i32 noundef 0, ptr noundef nonnull @.str.86, i32 noundef %5, i32 noundef 8192) #12
  tail call void @exit(i32 noundef 1) #15
  unreachable

6:                                                ; preds = %3
  tail call void @llvm.memcpy.p0.p0.i64(ptr noundef nonnull align 8 dereferenceable(296) %0, ptr noundef nonnull align 1 dereferenceable(296) %1, i64 296, i1 false)
  %7 = getelementptr inbounds nuw i8, ptr %0, i64 228
  %8 = load i32, ptr %7, align 4
  store i32 %8, ptr @WalSegSz, align 4
  %9 = icmp sgt i32 %8, 0
  br i1 %9, label %10, label %15

10:                                               ; preds = %6
  %11 = tail call range(i32 1, 32) i32 @llvm.ctpop.i32(i32 %8)
  %12 = icmp samesign ult i32 %11, 2
  %13 = add nsw i32 %8, -1048576
  %14 = icmp ult i32 %13, 1072693249
  %or.cond3 = and i1 %12, %14
  br i1 %or.cond3, label %18, label %15

15:                                               ; preds = %10, %6
  %16 = icmp eq i32 %8, 1
  %17 = select i1 %16, ptr @.str.87, ptr @.str.88
  tail call void (i32, i32, ptr, ...) @pg_log_generic(i32 noundef 4, i32 noundef 0, ptr noundef nonnull %17, i32 noundef %8) #12
  tail call void (i32, i32, ptr, ...) @pg_log_generic(i32 noundef 4, i32 noundef 1, ptr noundef nonnull @.str.89) #12
  tail call void @exit(i32 noundef 1) #15
  unreachable

18:                                               ; preds = %10
  %19 = load ptr, ptr @pg_comp_crc32c, align 8
  %20 = tail call i32 %19(i32 noundef -1, ptr noundef nonnull %0, i64 noundef 288) #12
  %21 = getelementptr inbounds nuw i8, ptr %0, i64 288
  %22 = load i32, ptr %21, align 8
  %23 = xor i32 %22, %20
  %24 = icmp eq i32 %23, -1
  br i1 %24, label %checkControlFile.exit, label %25

25:                                               ; preds = %18
  tail call void (i32, i32, ptr, ...) @pg_log_generic(i32 noundef 4, i32 noundef 0, ptr noundef nonnull @.str.90) #12
  tail call void @exit(i32 noundef 1) #15
  unreachable

checkControlFile.exit:                            ; preds = %18
  ret void
}